target datalayout = "e-m:e-p270:32:32-p271:32:32-p272:64:64-i64:64-i128:128-f80:128-n8:16:32:64-S128"
target triple = "x86_64-unknown-linux-gnu"

%class.vector.44 = type { ptr }

; Function Attrs: mustprogress nounwind uwtable
define linkonce_odr hidden void @_ZN9__gnu_cxx5__ops16__iter_less_iterEv() #5 comdat {
entry:
  ret void
}

; Function Attrs: mustprogress nounwind uwtable
define linkonce_odr hidden noundef nonnull align 4 dereferenceable(4) ptr @_ZN6vectorIjLb1EjE4backEv(ptr noundef nonnull align 8 dereferenceable(8) %this) #5 comdat align 2 {
entry:
  %this.addr = alloca ptr, align 8
  store ptr %this, ptr %this.addr, align 8
  %this1 = load ptr, ptr %this.addr, align 8
  %call = call noundef i32 @_ZNK6vectorIjLb1EjE4sizeEv(ptr noundef nonnull align 8 dereferenceable(8) %this1)
  %sub = sub i32 %call, 1
  %call2 = call noundef nonnull align 4 dereferenceable(4) ptr @_ZN6vectorIjLb1EjEixEj(ptr noundef nonnull align 8 dereferenceable(8) %this1, i32 noundef %sub)
  ret ptr %call2
}

; Function Attrs: mustprogress nounwind uwtable
define linkonce_odr hidden noundef nonnull align 4 dereferenceable(4) ptr @_ZN6vectorIjLb1EjEixEj(ptr noundef nonnull align 8 dereferenceable(8) %this, i32 noundef %idx) #5 comdat align 2 {
entry:
  %this.addr = alloca ptr, align 8
  %idx.addr = alloca i32, align 4
  store ptr %this, ptr %this.addr, align 8
  store i32 %idx, ptr %idx.addr, align 4
  %this1 = load ptr, ptr %this.addr, align 8
  %m_data = getelementptr inbounds %class.vector.44, ptr %this1, i32 0, i32 0
  %0 = load ptr, ptr %m_data, align 8
  %1 = load i32, ptr %idx.addr, align 4
  %idxprom = zext i32 %1 to i64
  %arrayidx = getelementptr inbounds i32, ptr %0, i64 %idxprom
  ret ptr %arrayidx
}

; Function Attrs: mustprogress nounwind uwtable
define linkonce_odr hidden noundef i32 @_ZNK6vectorIjLb1EjE4sizeEv(ptr noundef nonnull align 8 dereferenceable(8) %this) #5 comdat align 2 {
entry:
  %retval = alloca i32, align 4
  %this.addr = alloca ptr, align 8
  store ptr %this, ptr %this.addr, align 8
  %this1 = load ptr, ptr %this.addr, align 8
  %m_data = getelementptr inbounds %class.vector.44, ptr %this1, i32 0, i32 0
  %0 = load ptr, ptr %m_data, align 8
  %cmp = icmp eq ptr %0, null
  br i1 %cmp, label %if.then, label %if.end

if.then:                                          ; preds = %entry
  store i32 0, ptr %retval, align 4
  br label %return

if.end:                                           ; preds = %entry
  %m_data2 = getelementptr inbounds %class.vector.44, ptr %this1, i32 0, i32 0
  %1 = load ptr, ptr %m_data2, align 8
  %arrayidx = getelementptr inbounds i32, ptr %1, i64 -1
  %2 = load i32, ptr %arrayidx, align 4
  store i32 %2, ptr %retval, align 4
  br label %return

return:                                           ; preds = %if.end, %if.then
  %3 = load i32, ptr %retval, align 4
  ret i32 %3
}

; Function Attrs: mustprogress uwtable
define linkonce_odr void @_ZSt4sortIPjEvT_S1_(ptr noundef %__first, ptr noundef %__last) #4 comdat {
entry:
  %__first.addr = alloca ptr, align 8
  %__last.addr = alloca ptr, align 8
  store ptr %__first, ptr %__first.addr, align 8
  store ptr %__last, ptr %__last.addr, align 8
  %0 = load ptr, ptr %__first.addr, align 8
  %1 = load ptr, ptr %__last.addr, align 8
  call void @_ZN9__gnu_cxx5__ops16__iter_less_iterEv()
  call void @_ZSt6__sortIPjN9__gnu_cxx5__ops15_Iter_less_iterEEvT_S4_T0_(ptr noundef %0, ptr noundef %1)
  ret void
}

; Function Attrs: mustprogress uwtable
define linkonce_odr hidden noundef ptr @_ZN6vectorIjLb1EjE3endEv(ptr noundef nonnull align 8 dereferenceable(8) %this) #4 comdat align 2 {
entry:
  %this.addr = alloca ptr, align 8
  store ptr %this, ptr %this.addr, align 8
  %this1 = load ptr, ptr %this.addr, align 8
  %m_data = getelementptr inbounds %class.vector.44, ptr %this1, i32 0, i32 0
  %0 = load ptr, ptr %m_data, align 8
  %call = call noundef i32 @_ZNK6vectorIjLb1EjE4sizeEv(ptr noundef nonnull align 8 dereferenceable(8) %this1)
  %idx.ext = zext i32 %call to i64
  %add.ptr = getelementptr inbounds i32, ptr %0, i64 %idx.ext
  ret ptr %add.ptr
}

; Function Attrs: mustprogress nounwind uwtable
define linkonce_odr hidden noundef ptr @_ZN6vectorIjLb1EjE5beginEv(ptr noundef nonnull align 8 dereferenceable(8) %this) #5 comdat align 2 {
entry:
  %this.addr = alloca ptr, align 8
  store ptr %this, ptr %this.addr, align 8
  %this1 = load ptr, ptr %this.addr, align 8
  %m_data = getelementptr inbounds %class.vector.44, ptr %this1, i32 0, i32 0
  %0 = load ptr, ptr %m_data, align 8
  ret ptr %0
}

; Function Attrs: mustprogress uwtable
define hidden noundef zeroext i1 @_ZN6spacer20naive_convex_closure9get_rangeER6vectorIjLb1EjERjS4_(ptr noundef nonnull align 8 dereferenceable(8) %v, ptr noundef nonnull align 4 dereferenceable(4) %lower_bound, ptr noundef nonnull align 4 dereferenceable(4) %upper_bound) #4 align 2 {
entry:
  %retval = alloca i1, align 1
  %v.addr = alloca ptr, align 8
  %lower_bound.addr = alloca ptr, align 8
  %upper_bound.addr = alloca ptr, align 8
  %i = alloca i32, align 4
  store ptr %v, ptr %v.addr, align 8
  store ptr %lower_bound, ptr %lower_bound.addr, align 8
  store ptr %upper_bound, ptr %upper_bound.addr, align 8
  %0 = load ptr, ptr %v.addr, align 8
  %call = call noundef ptr @_ZN6vectorIjLb1EjE5beginEv(ptr noundef nonnull align 8 dereferenceable(8) %0)
  %1 = load ptr, ptr %v.addr, align 8
  %call1 = call noundef ptr @_ZN6vectorIjLb1EjE3endEv(ptr noundef nonnull align 8 dereferenceable(8) %1)
  call void @_ZSt4sortIPjEvT_S1_(ptr noundef %call, ptr noundef %call1)
  store i32 0, ptr %i, align 4
  br label %for.cond

for.cond:                                         ; preds = %for.inc, %entry
  %2 = load i32, ptr %i, align 4
  %add = add i32 %2, 1
  %3 = load ptr, ptr %v.addr, align 8
  %call2 = call noundef i32 @_ZNK6vectorIjLb1EjE4sizeEv(ptr noundef nonnull align 8 dereferenceable(8) %3)
  %cmp = icmp ult i32 %add, %call2
  br i1 %cmp, label %for.body, label %for.end

for.body:                                         ; preds = %for.cond
  %4 = load ptr, ptr %v.addr, align 8
  %5 = load i32, ptr %i, align 4
  %call3 = call noundef nonnull align 4 dereferenceable(4) ptr @_ZN6vectorIjLb1EjEixEj(ptr noundef nonnull align 8 dereferenceable(8) %4, i32 noundef %5)
  %6 = load i32, ptr %call3, align 4
  %add4 = add i32 %6, 1
  %7 = load ptr, ptr %v.addr, align 8
  %8 = load i32, ptr %i, align 4
  %add5 = add i32 %8, 1
  %call6 = call noundef nonnull align 4 dereferenceable(4) ptr @_ZN6vectorIjLb1EjEixEj(ptr noundef nonnull align 8 dereferenceable(8) %7, i32 noundef %add5)
  %9 = load i32, ptr %call6, align 4
  %cmp7 = icmp ne i32 %add4, %9
  br i1 %cmp7, label %if.then, label %if.end

if.then:                                          ; preds = %for.body
  store i1 false, ptr %retval, align 1
  br label %return

if.end:                                           ; preds = %for.body
  br label %for.inc

for.inc:                                          ; preds = %if.end
  %10 = load i32, ptr %i, align 4
  %inc = add i32 %10, 1
  store i32 %inc, ptr %i, align 4
  br label %for.cond, !llvm.loop !8

for.end:                                          ; preds = %for.cond
  %11 = load ptr, ptr %v.addr, align 8
  %call8 = call noundef nonnull align 4 dereferenceable(4) ptr @_ZN6vectorIjLb1EjEixEj(ptr noundef nonnull align 8 dereferenceable(8) %11, i32 noundef 0)
  %12 = load i32, ptr %call8, align 4
  %13 = load ptr, ptr %lower_bound.addr, align 8
  store i32 %12, ptr %13, align 4
  %14 = load ptr, ptr %v.addr, align 8
  %call9 = call noundef nonnull align 4 dereferenceable(4) ptr @_ZN6vectorIjLb1EjE4backEv(ptr noundef nonnull align 8 dereferenceable(8) %14)
  %15 = load i32, ptr %call9, align 4
  %16 = load ptr, ptr %upper_bound.addr, align 8
  store i32 %15, ptr %16, align 4
  store i1 true, ptr %retval, align 1
  br label %return

return:                                           ; preds = %for.end, %if.then
  %17 = load i1, ptr %retval, align 1
  ret i1 %17
}