; Function Attrs: mustprogress uwtable
define hidden noundef zeroext i1 @_ZN6spacer20naive_convex_closure9get_rangeER6vectorIjLb1EjERjS4_(ptr nocapture noundef nonnull readonly align 8 dereferenceable(8) %v, ptr nocapture noundef nonnull writeonly align 4 dereferenceable(4) %lower_bound, ptr nocapture noundef nonnull writeonly align 4 dereferenceable(4) %upper_bound) local_unnamed_addr #3 align 2 {
entry:
  %0 = load ptr, ptr %v, align 8
  %cmp.i.i = icmp eq ptr %0, null
  br i1 %cmp.i.i, label %_ZN6vectorIjLb1EjE3endEv.exit, label %if.end.i.i

if.end.i.i:                                       ; preds = %entry
  %arrayidx.i.i = getelementptr inbounds i8, ptr %0, i64 -4
  %1 = load i32, ptr %arrayidx.i.i, align 4
  %2 = zext i32 %1 to i64
  br label %_ZN6vectorIjLb1EjE3endEv.exit

_ZN6vectorIjLb1EjE3endEv.exit:                    ; preds = %entry, %if.end.i.i
  %retval.0.i.i = phi i64 [ %2, %if.end.i.i ], [ 0, %entry ]
  %add.ptr.i = getelementptr inbounds i32, ptr %0, i64 %retval.0.i.i
  tail call void @_ZSt6__sortIPjN9__gnu_cxx5__ops15_Iter_less_iterEEvT_S4_T0_(ptr noundef %0, ptr noundef %add.ptr.i)
  %3 = load ptr, ptr %v, align 8
  %cmp.i = icmp eq ptr %3, null
  br i1 %cmp.i, label %for.end.split, label %_ZN6vectorIjLb1EjE3endEv.exit.split

_ZN6vectorIjLb1EjE3endEv.exit.split:              ; preds = %_ZN6vectorIjLb1EjE3endEv.exit
  %arrayidx.i = getelementptr inbounds i8, ptr %3, i64 -4
  %4 = load i32, ptr %arrayidx.i, align 4
  %umax = tail call i32 @llvm.umax.i32(i32 %4, i32 1)
  %5 = add i32 %umax, -1
  br label %for.cond

for.cond:                                         ; preds = %for.body, %_ZN6vectorIjLb1EjE3endEv.exit.split
  %i.0 = phi i32 [ 0, %_ZN6vectorIjLb1EjE3endEv.exit.split ], [ %add, %for.body ]
  %exitcond.not = icmp eq i32 %i.0, %5
  br i1 %exitcond.not, label %for.end.split, label %for.body

for.body:                                         ; preds = %for.cond
  %add = add nuw i32 %i.0, 1
  %idxprom.i = zext i32 %i.0 to i64
  %arrayidx.i10 = getelementptr inbounds i32, ptr %3, i64 %idxprom.i
  %6 = load i32, ptr %arrayidx.i10, align 4
  %add4 = add i32 %6, 1
  %idxprom.i11 = zext i32 %add to i64
  %arrayidx.i12 = getelementptr inbounds i32, ptr %3, i64 %idxprom.i11
  %7 = load i32, ptr %arrayidx.i12, align 4
  %cmp7.not = icmp eq i32 %add4, %7
  br i1 %cmp7.not, label %for.cond, label %return, !llvm.loop !16

for.end.split:                                    ; preds = %for.cond, %_ZN6vectorIjLb1EjE3endEv.exit
  %8 = load i32, ptr %3, align 4
  store i32 %8, ptr %lower_bound, align 4
  %9 = load ptr, ptr %v, align 8
  %cmp.i.i13 = icmp eq ptr %9, null
  br i1 %cmp.i.i13, label %_ZN6vectorIjLb1EjE4backEv.exit, label %if.end.i.i14

if.end.i.i14:                                     ; preds = %for.end.split
  %arrayidx.i.i15 = getelementptr inbounds i8, ptr %9, i64 -4
  %10 = load i32, ptr %arrayidx.i.i15, align 4
  %11 = add i32 %10, -1
  %12 = zext i32 %11 to i64
  br label %_ZN6vectorIjLb1EjE4backEv.exit

_ZN6vectorIjLb1EjE4backEv.exit:                   ; preds = %for.end.split, %if.end.i.i14
  %retval.0.i.i16 = phi i64 [ %12, %if.end.i.i14 ], [ 4294967295, %for.end.split ]
  %arrayidx.i1.i = getelementptr inbounds i32, ptr %9, i64 %retval.0.i.i16
  %13 = load i32, ptr %arrayidx.i1.i, align 4
  store i32 %13, ptr %upper_bound, align 4
  br label %return

return:                                           ; preds = %for.body, %_ZN6vectorIjLb1EjE4backEv.exit
  %cmp19 = phi i1 [ true, %_ZN6vectorIjLb1EjE4backEv.exit ], [ false, %for.body ]
  ret i1 %cmp19
}